; Function Attrs: mustprogress uwtable
define noundef double @_ZNK6Memory13MemoryInUseMBEj(ptr noundef nonnull readonly align 8 captures(none) dereferenceable(56) %0, i32 noundef %1) local_unnamed_addr #5 align 2 {
  %3 = zext i32 %1 to i64
  %4 = load ptr, ptr %0, align 8
  %5 = getelementptr inbounds nuw ptr, ptr %4, i64 %3
  %6 = load ptr, ptr %5, align 8
  %7 = getelementptr inbounds nuw i8, ptr %6, i64 987984
  %8 = load ptr, ptr %7, align 8
  %9 = load ptr, ptr %8, align 8
  %10 = getelementptr inbounds nuw i8, ptr %9, i64 64
  %11 = load ptr, ptr %10, align 8
  %12 = tail call noundef double %11(ptr noundef nonnull align 8 dereferenceable(8) %8)
  %13 = fadd double %12, 9.600000e+02
  ret double %13
}